; ModuleID = '38/1434.cpp'
source_filename = "38/1434.cpp"
target datalayout = "e-m:e-p270:32:32-p271:32:32-p272:64:64-i64:64-f80:128-n8:16:32:64-S128"
target triple = "x86_64-pc-linux-gnu"

%"class.std::ios_base::Init" = type { i8 }
%"class.std::basic_istream" = type { i32 (...)**, i64, %"class.std::basic_ios" }
%"class.std::basic_ios" = type { %"class.std::ios_base", %"class.std::basic_ostream"*, i8, i8, %"class.std::basic_streambuf"*, %"class.std::ctype"*, %"class.std::num_put"*, %"class.std::num_get"* }
%"class.std::ios_base" = type { i32 (...)**, i64, i64, i32, i32, i32, %"struct.std::ios_base::_Callback_list"*, %"struct.std::ios_base::_Words", [8 x %"struct.std::ios_base::_Words"], i32, %"struct.std::ios_base::_Words"*, %"class.std::locale" }
%"struct.std::ios_base::_Callback_list" = type { %"struct.std::ios_base::_Callback_list"*, void (i32, %"class.std::ios_base"*, i32)*, i32, i32 }
%"struct.std::ios_base::_Words" = type { i8*, i64 }
%"class.std::locale" = type { %"class.std::locale::_Impl"* }
%"class.std::locale::_Impl" = type { i32, %"class.std::locale::facet"**, i64, %"class.std::locale::facet"**, i8** }
%"class.std::locale::facet" = type <{ i32 (...)**, i32, [4 x i8] }>
%"class.std::basic_ostream" = type { i32 (...)**, %"class.std::basic_ios" }
%"class.std::basic_streambuf" = type { i32 (...)**, i8*, i8*, i8*, i8*, i8*, i8*, %"class.std::locale" }
%"class.std::ctype" = type <{ %"class.std::locale::facet.base", [4 x i8], %struct.__locale_struct*, i8, [7 x i8], i32*, i32*, i16*, i8, [256 x i8], [256 x i8], i8, [6 x i8] }>
%"class.std::locale::facet.base" = type <{ i32 (...)**, i32 }>
%struct.__locale_struct = type { [13 x %struct.__locale_data*], i16*, i32*, i32*, [13 x i8*] }
%struct.__locale_data = type opaque
%"class.std::num_put" = type { %"class.std::locale::facet.base", [4 x i8] }
%"class.std::num_get" = type { %"class.std::locale::facet.base", [4 x i8] }

@_ZStL8__ioinit = internal global %"class.std::ios_base::Init" zeroinitializer, align 1
@__dso_handle = external hidden global i8
@_ZSt3cin = external dso_local global %"class.std::basic_istream", align 8
@.str = private unnamed_addr constant [6 x i8] c"%.5f\0A\00", align 1
@llvm.global_ctors = appending global [1 x { i32, void ()*, i8* }] [{ i32, void ()*, i8* } { i32 65535, void ()* @_GLOBAL__sub_I_1434.cpp, i8* null }]

; Function Attrs: noinline uwtable
define internal void @__cxx_global_var_init() #0 section ".text.startup" {
  call void @_ZNSt8ios_base4InitC1Ev(%"class.std::ios_base::Init"* @_ZStL8__ioinit)
  %1 = call i32 @__cxa_atexit(void (i8*)* bitcast (void (%"class.std::ios_base::Init"*)* @_ZNSt8ios_base4InitD1Ev to void (i8*)*), i8* getelementptr inbounds (%"class.std::ios_base::Init", %"class.std::ios_base::Init"* @_ZStL8__ioinit, i32 0, i32 0), i8* @__dso_handle) #3
  ret void
}

declare dso_local void @_ZNSt8ios_base4InitC1Ev(%"class.std::ios_base::Init"*) unnamed_addr #1

; Function Attrs: nounwind
declare dso_local void @_ZNSt8ios_base4InitD1Ev(%"class.std::ios_base::Init"*) unnamed_addr #2

; Function Attrs: nounwind
declare dso_local i32 @__cxa_atexit(void (i8*)*, i8*, i8*) #3

; Function Attrs: noinline nounwind uwtable
define dso_local double @_Z7averagePdi(double* %0, i32 %1) #4 {
  %3 = alloca double*, align 8
  %4 = alloca i32, align 4
  %5 = alloca double*, align 8
  %6 = alloca double, align 8
  %7 = alloca double, align 8
  %8 = alloca double, align 8
  %9 = alloca double, align 8
  store double* %0, double** %3, align 8
  store i32 %1, i32* %4, align 4
  store double 0.000000e+00, double* %6, align 8
  store double 0.000000e+00, double* %7, align 8
  %10 = load double*, double** %3, align 8
  store double* %10, double** %5, align 8
  br label %11

11:                                               ; preds = %23, %2
  %12 = load double*, double** %5, align 8
  %13 = load double*, double** %3, align 8
  %14 = load i32, i32* %4, align 4
  %15 = sext i32 %14 to i64
  %16 = getelementptr inbounds double, double* %13, i64 %15
  %17 = icmp ult double* %12, %16
  br i1 %17, label %18, label %26

18:                                               ; preds = %11
  %19 = load double, double* %6, align 8
  %20 = load double*, double** %5, align 8
  %21 = load double, double* %20, align 8
  %22 = fadd double %19, %21
  store double %22, double* %6, align 8
  br label %23

23:                                               ; preds = %18
  %24 = load double*, double** %5, align 8
  %25 = getelementptr inbounds double, double* %24, i32 1
  store double* %25, double** %5, align 8
  br label %11

26:                                               ; preds = %11
  %27 = load double, double* %6, align 8
  %28 = load i32, i32* %4, align 4
  %29 = sitofp i32 %28 to double
  %30 = fdiv double %27, %29
  store double %30, double* %8, align 8
  %31 = load double*, double** %3, align 8
  store double* %31, double** %5, align 8
  br label %32

32:                                               ; preds = %51, %26
  %33 = load double*, double** %5, align 8
  %34 = load double*, double** %3, align 8
  %35 = load i32, i32* %4, align 4
  %36 = sext i32 %35 to i64
  %37 = getelementptr inbounds double, double* %34, i64 %36
  %38 = icmp ult double* %33, %37
  br i1 %38, label %39, label %54

39:                                               ; preds = %32
  %40 = load double, double* %7, align 8
  %41 = load double*, double** %5, align 8
  %42 = load double, double* %41, align 8
  %43 = load double, double* %8, align 8
  %44 = fsub double %42, %43
  %45 = load double*, double** %5, align 8
  %46 = load double, double* %45, align 8
  %47 = load double, double* %8, align 8
  %48 = fsub double %46, %47
  %49 = fmul double %44, %48
  %50 = fadd double %40, %49
  store double %50, double* %7, align 8
  br label %51

51:                                               ; preds = %39
  %52 = load double*, double** %5, align 8
  %53 = getelementptr inbounds double, double* %52, i32 1
  store double* %53, double** %5, align 8
  br label %32

54:                                               ; preds = %32
  %55 = load double, double* %7, align 8
  %56 = load i32, i32* %4, align 4
  %57 = sitofp i32 %56 to double
  %58 = fdiv double %55, %57
  store double %58, double* %9, align 8
  %59 = load double, double* %9, align 8
  %60 = call double @sqrt(double %59) #3
  ret double %60
}

; Function Attrs: nounwind
declare dso_local double @sqrt(double) #2

; Function Attrs: noinline norecurse uwtable
define dso_local i32 @main() #5 {
  %1 = alloca i32, align 4
  %2 = alloca i32, align 4
  %3 = alloca i32, align 4
  %4 = alloca [100 x double], align 16
  %5 = alloca i32, align 4
  %6 = alloca i32, align 4
  store i32 0, i32* %1, align 4
  %7 = call dereferenceable(280) %"class.std::basic_istream"* @_ZNSirsERi(%"class.std::basic_istream"* @_ZSt3cin, i32* dereferenceable(4) %2)
  store i32 0, i32* %5, align 4
  br label %8

8:                                                ; preds = %31, %0
  %9 = load i32, i32* %5, align 4
  %10 = load i32, i32* %2, align 4
  %11 = icmp slt i32 %9, %10
  br i1 %11, label %12, label %34

12:                                               ; preds = %8
  %13 = call dereferenceable(280) %"class.std::basic_istream"* @_ZNSirsERi(%"class.std::basic_istream"* @_ZSt3cin, i32* dereferenceable(4) %3)
  store i32 0, i32* %6, align 4
  br label %14

14:                                               ; preds = %23, %12
  %15 = load i32, i32* %6, align 4
  %16 = load i32, i32* %3, align 4
  %17 = icmp slt i32 %15, %16
  br i1 %17, label %18, label %26

18:                                               ; preds = %14
  %19 = load i32, i32* %6, align 4
  %20 = sext i32 %19 to i64
  %21 = getelementptr inbounds [100 x double], [100 x double]* %4, i64 0, i64 %20
  %22 = call dereferenceable(280) %"class.std::basic_istream"* @_ZNSirsERd(%"class.std::basic_istream"* @_ZSt3cin, double* dereferenceable(8) %21)
  br label %23

23:                                               ; preds = %18
  %24 = load i32, i32* %6, align 4
  %25 = add nsw i32 %24, 1
  store i32 %25, i32* %6, align 4
  br label %14

26:                                               ; preds = %14
  %27 = getelementptr inbounds [100 x double], [100 x double]* %4, i64 0, i64 0
  %28 = load i32, i32* %3, align 4
  %29 = call double @_Z7averagePdi(double* %27, i32 %28)
  %30 = call i32 (i8*, ...) @printf(i8* getelementptr inbounds ([6 x i8], [6 x i8]* @.str, i64 0, i64 0), double %29)
  br label %31

31:                                               ; preds = %26
  %32 = load i32, i32* %5, align 4
  %33 = add nsw i32 %32, 1
  store i32 %33, i32* %5, align 4
  br label %8

34:                                               ; preds = %8
  ret i32 0
}

declare dso_local dereferenceable(280) %"class.std::basic_istream"* @_ZNSirsERi(%"class.std::basic_istream"*, i32* dereferenceable(4)) #1

declare dso_local dereferenceable(280) %"class.std::basic_istream"* @_ZNSirsERd(%"class.std::basic_istream"*, double* dereferenceable(8)) #1

declare dso_local i32 @printf(i8*, ...) #1

; Function Attrs: noinline uwtable
define internal void @_GLOBAL__sub_I_1434.cpp() #0 section ".text.startup" {
  call void @__cxx_global_var_init()
  ret void
}


!llvm.module.flags = !{!0}
!llvm.ident = !{!1}

!0 = !{i32 1, !"wchar_size", i32 4}
!1 = !{!"clang version 10.0.0-4ubuntu1 "}
