; ModuleID = 'source-C-CXX/37/1434.cpp'
source_filename = "source-C-CXX/37/1434.cpp"
target datalayout = "e-m:e-p270:32:32-p271:32:32-p272:64:64-i64:64-f80:128-n8:16:32:64-S128"
target triple = "x86_64-pc-linux-gnu"

%"class.std::ios_base::Init" = type { i8 }
%"class.std::basic_istream" = type { i32 (...)**, i64, %"class.std::basic_ios" }
%"class.std::basic_ios" = type { %"class.std::ios_base", %"class.std::basic_ostream"*, i8, i8, %"class.std::basic_streambuf"*, %"class.std::ctype"*, %"class.std::num_put"*, %"class.std::num_get"* }
%"class.std::ios_base" = type { i32 (...)**, i64, i64, i32, i32, i32, %"struct.std::ios_base::_Callback_list"*, %"struct.std::ios_base::_Words", [8 x %"struct.std::ios_base::_Words"], i32, %"struct.std::ios_base::_Words"*, %"class.std::locale" }
%"struct.std::ios_base::_Callback_list" = type { %"struct.std::ios_base::_Callback_list"*, void (i32, %"class.std::ios_base"*, i32)*, i32, i32 }
%"struct.std::ios_base::_Words" = type { i8*, i64 }
%"class.std::locale" = type { %"class.std::locale::_Impl"* }
%"class.std::locale::_Impl" = type { i32, %"class.std::locale::facet"**, i64, %"class.std::locale::facet"**, i8** }
%"class.std::locale::facet" = type <{ i32 (...)**, i32, [4 x i8] }>
%"class.std::basic_ostream" = type { i32 (...)**, %"class.std::basic_ios" }
%"class.std::basic_streambuf" = type { i32 (...)**, i8*, i8*, i8*, i8*, i8*, i8*, %"class.std::locale" }
%"class.std::ctype" = type <{ %"class.std::locale::facet.base", [4 x i8], %struct.__locale_struct*, i8, [7 x i8], i32*, i32*, i16*, i8, [256 x i8], [256 x i8], i8, [6 x i8] }>
%"class.std::locale::facet.base" = type <{ i32 (...)**, i32 }>
%struct.__locale_struct = type { [13 x %struct.__locale_data*], i16*, i32*, i32*, [13 x i8*] }
%struct.__locale_data = type opaque
%"class.std::num_put" = type { %"class.std::locale::facet.base", [4 x i8] }
%"class.std::num_get" = type { %"class.std::locale::facet.base", [4 x i8] }

@_ZStL8__ioinit = internal global %"class.std::ios_base::Init" zeroinitializer, align 1
@__dso_handle = external hidden global i8
@_ZSt3cin = external global %"class.std::basic_istream", align 8
@.str = private unnamed_addr constant [6 x i8] c"%.5f\0A\00", align 1
@llvm.global_ctors = appending global [1 x { i32, void ()*, i8* }] [{ i32, void ()*, i8* } { i32 65535, void ()* @_GLOBAL__sub_I_1434.cpp, i8* null }]

declare void @_ZNSt8ios_base4InitC1Ev(%"class.std::ios_base::Init"* nonnull align 1 dereferenceable(1)) unnamed_addr #0

; Function Attrs: nounwind
declare void @_ZNSt8ios_base4InitD1Ev(%"class.std::ios_base::Init"* nonnull align 1 dereferenceable(1)) unnamed_addr #1

; Function Attrs: nofree nounwind
declare i32 @__cxa_atexit(void (i8*)*, i8*, i8*) local_unnamed_addr #2

; Function Attrs: mustprogress nofree nounwind sspstrong uwtable
define dso_local double @_Z7averagePdi(double* readonly %0, i32 %1) local_unnamed_addr #3 {
  %3 = sext i32 %1 to i64
  %4 = getelementptr inbounds double, double* %0, i64 %3
  %5 = icmp sgt i32 %1, 0
  br i1 %5, label %8, label %6

6:                                                ; preds = %2
  %7 = sitofp i32 %1 to double
  br label %27

8:                                                ; preds = %2, %8
  %9 = phi double* [ %13, %8 ], [ %0, %2 ]
  %10 = phi double [ %12, %8 ], [ 0.000000e+00, %2 ]
  %11 = load double, double* %9, align 8, !tbaa !5
  %12 = fadd double %10, %11
  %13 = getelementptr inbounds double, double* %9, i64 1
  %14 = icmp ult double* %13, %4
  br i1 %14, label %8, label %15, !llvm.loop !9

15:                                               ; preds = %8
  %16 = sitofp i32 %1 to double
  %17 = fdiv double %12, %16
  br i1 %5, label %18, label %27

18:                                               ; preds = %15, %18
  %19 = phi double* [ %25, %18 ], [ %0, %15 ]
  %20 = phi double [ %24, %18 ], [ 0.000000e+00, %15 ]
  %21 = load double, double* %19, align 8, !tbaa !5
  %22 = fsub double %21, %17
  %23 = fmul double %22, %22
  %24 = fadd double %20, %23
  %25 = getelementptr inbounds double, double* %19, i64 1
  %26 = icmp ult double* %25, %4
  br i1 %26, label %18, label %27, !llvm.loop !11

27:                                               ; preds = %18, %6, %15
  %28 = phi double [ %16, %15 ], [ %7, %6 ], [ %16, %18 ]
  %29 = phi double [ 0.000000e+00, %15 ], [ 0.000000e+00, %6 ], [ %24, %18 ]
  %30 = fdiv double %29, %28
  %31 = tail call double @sqrt(double %30) #9
  ret double %31
}

; Function Attrs: argmemonly mustprogress nofree nosync nounwind willreturn
declare void @llvm.lifetime.start.p0i8(i64 immarg, i8* nocapture) #4

; Function Attrs: mustprogress nofree nounwind willreturn
declare double @sqrt(double) local_unnamed_addr #5

; Function Attrs: argmemonly mustprogress nofree nosync nounwind willreturn
declare void @llvm.lifetime.end.p0i8(i64 immarg, i8* nocapture) #4

; Function Attrs: mustprogress norecurse sspstrong uwtable
define dso_local i32 @main() local_unnamed_addr #6 {
  %1 = alloca i32, align 4
  %2 = alloca i32, align 4
  %3 = alloca [100 x double], align 16
  %4 = bitcast i32* %1 to i8*
  call void @llvm.lifetime.start.p0i8(i64 4, i8* nonnull %4) #9
  %5 = bitcast i32* %2 to i8*
  call void @llvm.lifetime.start.p0i8(i64 4, i8* nonnull %5) #9
  %6 = bitcast [100 x double]* %3 to i8*
  call void @llvm.lifetime.start.p0i8(i64 800, i8* nonnull %6) #9
  %7 = call nonnull align 8 dereferenceable(16) %"class.std::basic_istream"* @_ZNSirsERi(%"class.std::basic_istream"* nonnull align 8 dereferenceable(16) @_ZSt3cin, i32* nonnull align 4 dereferenceable(4) %1)
  %8 = getelementptr inbounds [100 x double], [100 x double]* %3, i64 0, i64 0
  %9 = load i32, i32* %1, align 4, !tbaa !12
  %10 = icmp sgt i32 %9, 0
  br i1 %10, label %11, label %59

11:                                               ; preds = %0, %50
  %12 = phi i32 [ %56, %50 ], [ 0, %0 ]
  %13 = call nonnull align 8 dereferenceable(16) %"class.std::basic_istream"* @_ZNSirsERi(%"class.std::basic_istream"* nonnull align 8 dereferenceable(16) @_ZSt3cin, i32* nonnull align 4 dereferenceable(4) %2)
  %14 = load i32, i32* %2, align 4, !tbaa !12
  %15 = icmp sgt i32 %14, 0
  br i1 %15, label %16, label %28

16:                                               ; preds = %11, %16
  %17 = phi i64 [ %20, %16 ], [ 0, %11 ]
  %18 = getelementptr inbounds [100 x double], [100 x double]* %3, i64 0, i64 %17
  %19 = call nonnull align 8 dereferenceable(16) %"class.std::basic_istream"* @_ZNSi10_M_extractIdEERSiRT_(%"class.std::basic_istream"* nonnull align 8 dereferenceable(16) @_ZSt3cin, double* nonnull align 8 dereferenceable(8) %18)
  %20 = add nuw nsw i64 %17, 1
  %21 = load i32, i32* %2, align 4, !tbaa !12
  %22 = sext i32 %21 to i64
  %23 = icmp slt i64 %20, %22
  br i1 %23, label %16, label %24, !llvm.loop !14

24:                                               ; preds = %16
  %25 = sext i32 %21 to i64
  %26 = getelementptr inbounds [100 x double], [100 x double]* %3, i64 0, i64 %25
  %27 = icmp sgt i32 %21, 0
  br i1 %27, label %31, label %28

28:                                               ; preds = %11, %24
  %29 = phi i32 [ %21, %24 ], [ %14, %11 ]
  %30 = sitofp i32 %29 to double
  br label %50

31:                                               ; preds = %24, %31
  %32 = phi double* [ %36, %31 ], [ %8, %24 ]
  %33 = phi double [ %35, %31 ], [ 0.000000e+00, %24 ]
  %34 = load double, double* %32, align 8, !tbaa !5
  %35 = fadd double %33, %34
  %36 = getelementptr inbounds double, double* %32, i64 1
  %37 = icmp ult double* %36, %26
  br i1 %37, label %31, label %38, !llvm.loop !9

38:                                               ; preds = %31
  %39 = sitofp i32 %21 to double
  %40 = fdiv double %35, %39
  br label %41

41:                                               ; preds = %38, %41
  %42 = phi double* [ %48, %41 ], [ %8, %38 ]
  %43 = phi double [ %47, %41 ], [ 0.000000e+00, %38 ]
  %44 = load double, double* %42, align 8, !tbaa !5
  %45 = fsub double %44, %40
  %46 = fmul double %45, %45
  %47 = fadd double %43, %46
  %48 = getelementptr inbounds double, double* %42, i64 1
  %49 = icmp ult double* %48, %26
  br i1 %49, label %41, label %50, !llvm.loop !11

50:                                               ; preds = %41, %28
  %51 = phi double [ %30, %28 ], [ %39, %41 ]
  %52 = phi double [ 0.000000e+00, %28 ], [ %47, %41 ]
  %53 = fdiv double %52, %51
  %54 = call double @sqrt(double %53) #9
  %55 = call i32 (i8*, ...) @printf(i8* nonnull dereferenceable(1) getelementptr inbounds ([6 x i8], [6 x i8]* @.str, i64 0, i64 0), double %54)
  %56 = add nuw nsw i32 %12, 1
  %57 = load i32, i32* %1, align 4, !tbaa !12
  %58 = icmp slt i32 %56, %57
  br i1 %58, label %11, label %59, !llvm.loop !15

59:                                               ; preds = %50, %0
  call void @llvm.lifetime.end.p0i8(i64 800, i8* nonnull %6) #9
  call void @llvm.lifetime.end.p0i8(i64 4, i8* nonnull %5) #9
  call void @llvm.lifetime.end.p0i8(i64 4, i8* nonnull %4) #9
  ret i32 0
}

declare nonnull align 8 dereferenceable(16) %"class.std::basic_istream"* @_ZNSirsERi(%"class.std::basic_istream"* nonnull align 8 dereferenceable(16), i32* nonnull align 4 dereferenceable(4)) local_unnamed_addr #0

; Function Attrs: nofree nounwind
declare noundef i32 @printf(i8* nocapture noundef readonly, ...) local_unnamed_addr #7

declare nonnull align 8 dereferenceable(16) %"class.std::basic_istream"* @_ZNSi10_M_extractIdEERSiRT_(%"class.std::basic_istream"* nonnull align 8 dereferenceable(16), double* nonnull align 8 dereferenceable(8)) local_unnamed_addr #0

; Function Attrs: sspstrong uwtable
define internal void @_GLOBAL__sub_I_1434.cpp() #8 section ".text.startup" {
  tail call void @_ZNSt8ios_base4InitC1Ev(%"class.std::ios_base::Init"* nonnull align 1 dereferenceable(1) @_ZStL8__ioinit)
  %1 = tail call i32 @__cxa_atexit(void (i8*)* bitcast (void (%"class.std::ios_base::Init"*)* @_ZNSt8ios_base4InitD1Ev to void (i8*)*), i8* getelementptr inbounds (%"class.std::ios_base::Init", %"class.std::ios_base::Init"* @_ZStL8__ioinit, i64 0, i32 0), i8* nonnull @__dso_handle) #9
  ret void
}


!llvm.module.flags = !{!0, !1, !2, !3}
!llvm.ident = !{!4}

!0 = !{i32 1, !"wchar_size", i32 4}
!1 = !{i32 7, !"PIC Level", i32 2}
!2 = !{i32 7, !"PIE Level", i32 2}
!3 = !{i32 7, !"uwtable", i32 1}
!4 = !{!"clang version 13.0.0"}
!5 = !{!6, !6, i64 0}
!6 = !{!"double", !7, i64 0}
!7 = !{!"omnipotent char", !8, i64 0}
!8 = !{!"Simple C++ TBAA"}
!9 = distinct !{!9, !10}
!10 = !{!"llvm.loop.mustprogress"}
!11 = distinct !{!11, !10}
!12 = !{!13, !13, i64 0}
!13 = !{!"int", !7, i64 0}
!14 = distinct !{!14, !10}
!15 = distinct !{!15, !10}
